
LCD_Driver.elf:     file format elf32-avr

Sections:
Idx Name          Size      VMA       LMA       File off  Algn
  0 .text         00000296  00000000  00000000  00000074  2**1
                  CONTENTS, ALLOC, LOAD, READONLY, CODE
  1 .data         0000001e  00800060  00000296  0000030a  2**0
                  CONTENTS, ALLOC, LOAD, DATA
  2 .stab         00000bf4  00000000  00000000  00000328  2**2
                  CONTENTS, READONLY, DEBUGGING
  3 .stabstr      00000143  00000000  00000000  00000f1c  2**0
                  CONTENTS, READONLY, DEBUGGING
  4 .comment      00000021  00000000  00000000  0000105f  2**0
                  CONTENTS, READONLY

Disassembly of section .text:

00000000 <__vectors>:
   0:	0c 94 2a 00 	jmp	0x54	; 0x54 <__ctors_end>
   4:	0c 94 3f 00 	jmp	0x7e	; 0x7e <__bad_interrupt>
   8:	0c 94 3f 00 	jmp	0x7e	; 0x7e <__bad_interrupt>
   c:	0c 94 3f 00 	jmp	0x7e	; 0x7e <__bad_interrupt>
  10:	0c 94 3f 00 	jmp	0x7e	; 0x7e <__bad_interrupt>
  14:	0c 94 3f 00 	jmp	0x7e	; 0x7e <__bad_interrupt>
  18:	0c 94 3f 00 	jmp	0x7e	; 0x7e <__bad_interrupt>
  1c:	0c 94 3f 00 	jmp	0x7e	; 0x7e <__bad_interrupt>
  20:	0c 94 3f 00 	jmp	0x7e	; 0x7e <__bad_interrupt>
  24:	0c 94 3f 00 	jmp	0x7e	; 0x7e <__bad_interrupt>
  28:	0c 94 3f 00 	jmp	0x7e	; 0x7e <__bad_interrupt>
  2c:	0c 94 3f 00 	jmp	0x7e	; 0x7e <__bad_interrupt>
  30:	0c 94 3f 00 	jmp	0x7e	; 0x7e <__bad_interrupt>
  34:	0c 94 3f 00 	jmp	0x7e	; 0x7e <__bad_interrupt>
  38:	0c 94 3f 00 	jmp	0x7e	; 0x7e <__bad_interrupt>
  3c:	0c 94 3f 00 	jmp	0x7e	; 0x7e <__bad_interrupt>
  40:	0c 94 3f 00 	jmp	0x7e	; 0x7e <__bad_interrupt>
  44:	0c 94 3f 00 	jmp	0x7e	; 0x7e <__bad_interrupt>
  48:	0c 94 3f 00 	jmp	0x7e	; 0x7e <__bad_interrupt>
  4c:	0c 94 3f 00 	jmp	0x7e	; 0x7e <__bad_interrupt>
  50:	0c 94 3f 00 	jmp	0x7e	; 0x7e <__bad_interrupt>

00000054 <__ctors_end>:
  54:	11 24       	eor	r1, r1
  56:	1f be       	out	0x3f, r1	; 63
  58:	cf e5       	ldi	r28, 0x5F	; 95
  5a:	d8 e0       	ldi	r29, 0x08	; 8
  5c:	de bf       	out	0x3e, r29	; 62
  5e:	cd bf       	out	0x3d, r28	; 61

00000060 <__do_copy_data>:
  60:	10 e0       	ldi	r17, 0x00	; 0
  62:	a0 e6       	ldi	r26, 0x60	; 96
  64:	b0 e0       	ldi	r27, 0x00	; 0
  66:	e6 e9       	ldi	r30, 0x96	; 150
  68:	f2 e0       	ldi	r31, 0x02	; 2
  6a:	02 c0       	rjmp	.+4      	; 0x70 <__do_copy_data+0x10>
  6c:	05 90       	lpm	r0, Z+
  6e:	0d 92       	st	X+, r0
  70:	ae 37       	cpi	r26, 0x7E	; 126
  72:	b1 07       	cpc	r27, r17
  74:	d9 f7       	brne	.-10     	; 0x6c <__do_copy_data+0xc>
  76:	0e 94 da 00 	call	0x1b4	; 0x1b4 <main>
  7a:	0c 94 49 01 	jmp	0x292	; 0x292 <_exit>

0000007e <__bad_interrupt>:
  7e:	0c 94 00 00 	jmp	0	; 0x0 <__vectors>

00000082 <LCD_Send_Command>:
  82:	94 98       	cbi	0x12, 4	; 18
  84:	95 98       	cbi	0x12, 5	; 18
  86:	ef ec       	ldi	r30, 0xCF	; 207
  88:	f7 e0       	ldi	r31, 0x07	; 7
  8a:	31 97       	sbiw	r30, 0x01	; 1
  8c:	f1 f7       	brne	.-4      	; 0x8a <LCD_Send_Command+0x8>
  8e:	00 c0       	rjmp	.+0      	; 0x90 <LCD_Send_Command+0xe>
  90:	00 00       	nop
  92:	96 9a       	sbi	0x12, 6	; 18
  94:	ef ec       	ldi	r30, 0xCF	; 207
  96:	f7 e0       	ldi	r31, 0x07	; 7
  98:	31 97       	sbiw	r30, 0x01	; 1
  9a:	f1 f7       	brne	.-4      	; 0x98 <LCD_Send_Command+0x16>
  9c:	00 c0       	rjmp	.+0      	; 0x9e <LCD_Send_Command+0x1c>
  9e:	00 00       	nop
  a0:	85 bb       	out	0x15, r24	; 21
  a2:	8f ec       	ldi	r24, 0xCF	; 207
  a4:	97 e0       	ldi	r25, 0x07	; 7
  a6:	01 97       	sbiw	r24, 0x01	; 1
  a8:	f1 f7       	brne	.-4      	; 0xa6 <LCD_Send_Command+0x24>
  aa:	00 c0       	rjmp	.+0      	; 0xac <LCD_Send_Command+0x2a>
  ac:	00 00       	nop
  ae:	96 98       	cbi	0x12, 6	; 18
  b0:	ef ec       	ldi	r30, 0xCF	; 207
  b2:	f7 e0       	ldi	r31, 0x07	; 7
  b4:	31 97       	sbiw	r30, 0x01	; 1
  b6:	f1 f7       	brne	.-4      	; 0xb4 <LCD_Send_Command+0x32>
  b8:	00 c0       	rjmp	.+0      	; 0xba <LCD_Send_Command+0x38>
  ba:	00 00       	nop
  bc:	08 95       	ret

000000be <LCD_display_Character>:
  be:	94 9a       	sbi	0x12, 4	; 18
  c0:	95 98       	cbi	0x12, 5	; 18
  c2:	ef ec       	ldi	r30, 0xCF	; 207
  c4:	f7 e0       	ldi	r31, 0x07	; 7
  c6:	31 97       	sbiw	r30, 0x01	; 1
  c8:	f1 f7       	brne	.-4      	; 0xc6 <LCD_display_Character+0x8>
  ca:	00 c0       	rjmp	.+0      	; 0xcc <LCD_display_Character+0xe>
  cc:	00 00       	nop
  ce:	96 9a       	sbi	0x12, 6	; 18
  d0:	ef ec       	ldi	r30, 0xCF	; 207
  d2:	f7 e0       	ldi	r31, 0x07	; 7
  d4:	31 97       	sbiw	r30, 0x01	; 1
  d6:	f1 f7       	brne	.-4      	; 0xd4 <LCD_display_Character+0x16>
  d8:	00 c0       	rjmp	.+0      	; 0xda <LCD_display_Character+0x1c>
  da:	00 00       	nop
  dc:	85 bb       	out	0x15, r24	; 21
  de:	8f ec       	ldi	r24, 0xCF	; 207
  e0:	97 e0       	ldi	r25, 0x07	; 7
  e2:	01 97       	sbiw	r24, 0x01	; 1
  e4:	f1 f7       	brne	.-4      	; 0xe2 <LCD_display_Character+0x24>
  e6:	00 c0       	rjmp	.+0      	; 0xe8 <LCD_display_Character+0x2a>
  e8:	00 00       	nop
  ea:	96 98       	cbi	0x12, 6	; 18
  ec:	ef ec       	ldi	r30, 0xCF	; 207
  ee:	f7 e0       	ldi	r31, 0x07	; 7
  f0:	31 97       	sbiw	r30, 0x01	; 1
  f2:	f1 f7       	brne	.-4      	; 0xf0 <LCD_display_Character+0x32>
  f4:	00 c0       	rjmp	.+0      	; 0xf6 <LCD_display_Character+0x38>
  f6:	00 00       	nop
  f8:	08 95       	ret

000000fa <LCD_init>:
  fa:	8c 9a       	sbi	0x11, 4	; 17
  fc:	8d 9a       	sbi	0x11, 5	; 17
  fe:	8e 9a       	sbi	0x11, 6	; 17
 100:	8f ef       	ldi	r24, 0xFF	; 255
 102:	84 bb       	out	0x14, r24	; 20
 104:	88 e3       	ldi	r24, 0x38	; 56
 106:	0e 94 41 00 	call	0x82	; 0x82 <LCD_Send_Command>
 10a:	8c e0       	ldi	r24, 0x0C	; 12
 10c:	0e 94 41 00 	call	0x82	; 0x82 <LCD_Send_Command>
 110:	81 e0       	ldi	r24, 0x01	; 1
 112:	0c 94 41 00 	jmp	0x82	; 0x82 <LCD_Send_Command>

00000116 <LCD_display_String>:
 116:	0f 93       	push	r16
 118:	1f 93       	push	r17
 11a:	cf 93       	push	r28
 11c:	8c 01       	movw	r16, r24
 11e:	c0 e0       	ldi	r28, 0x00	; 0
 120:	f8 01       	movw	r30, r16
 122:	ec 0f       	add	r30, r28
 124:	f1 1d       	adc	r31, r1
 126:	80 81       	ld	r24, Z
 128:	88 23       	and	r24, r24
 12a:	21 f0       	breq	.+8      	; 0x134 <LCD_display_String+0x1e>
 12c:	0e 94 5f 00 	call	0xbe	; 0xbe <LCD_display_Character>
 130:	cf 5f       	subi	r28, 0xFF	; 255
 132:	f6 cf       	rjmp	.-20     	; 0x120 <LCD_display_String+0xa>
 134:	cf 91       	pop	r28
 136:	1f 91       	pop	r17
 138:	0f 91       	pop	r16
 13a:	08 95       	ret

0000013c <LCD_go_To_ROW_Col>:
 13c:	81 30       	cpi	r24, 0x01	; 1
 13e:	49 f0       	breq	.+18     	; 0x152 <LCD_go_To_ROW_Col+0x16>
 140:	30 f0       	brcs	.+12     	; 0x14e <LCD_go_To_ROW_Col+0x12>
 142:	82 30       	cpi	r24, 0x02	; 2
 144:	41 f0       	breq	.+16     	; 0x156 <LCD_go_To_ROW_Col+0x1a>
 146:	83 30       	cpi	r24, 0x03	; 3
 148:	41 f4       	brne	.+16     	; 0x15a <LCD_go_To_ROW_Col+0x1e>
 14a:	90 e5       	ldi	r25, 0x50	; 80
 14c:	05 c0       	rjmp	.+10     	; 0x158 <LCD_go_To_ROW_Col+0x1c>
 14e:	96 2f       	mov	r25, r22
 150:	04 c0       	rjmp	.+8      	; 0x15a <LCD_go_To_ROW_Col+0x1e>
 152:	90 e4       	ldi	r25, 0x40	; 64
 154:	01 c0       	rjmp	.+2      	; 0x158 <LCD_go_To_ROW_Col+0x1c>
 156:	90 e1       	ldi	r25, 0x10	; 16
 158:	96 0f       	add	r25, r22
 15a:	89 2f       	mov	r24, r25
 15c:	80 68       	ori	r24, 0x80	; 128
 15e:	0c 94 41 00 	jmp	0x82	; 0x82 <LCD_Send_Command>

00000162 <LCD_Display_String_Row_Col>:
 162:	cf 93       	push	r28
 164:	df 93       	push	r29
 166:	ea 01       	movw	r28, r20
 168:	0e 94 9e 00 	call	0x13c	; 0x13c <LCD_go_To_ROW_Col>
 16c:	ce 01       	movw	r24, r28
 16e:	df 91       	pop	r29
 170:	cf 91       	pop	r28
 172:	0c 94 8b 00 	jmp	0x116	; 0x116 <LCD_display_String>

00000176 <LCD_intger_TO_String>:
 176:	cf 93       	push	r28
 178:	df 93       	push	r29
 17a:	cd b7       	in	r28, 0x3d	; 61
 17c:	de b7       	in	r29, 0x3e	; 62
 17e:	60 97       	sbiw	r28, 0x10	; 16
 180:	0f b6       	in	r0, 0x3f	; 63
 182:	f8 94       	cli
 184:	de bf       	out	0x3e, r29	; 62
 186:	0f be       	out	0x3f, r0	; 63
 188:	cd bf       	out	0x3d, r28	; 61
 18a:	4a e0       	ldi	r20, 0x0A	; 10
 18c:	50 e0       	ldi	r21, 0x00	; 0
 18e:	be 01       	movw	r22, r28
 190:	6f 5f       	subi	r22, 0xFF	; 255
 192:	7f 4f       	sbci	r23, 0xFF	; 255
 194:	90 e0       	ldi	r25, 0x00	; 0
 196:	0e 94 04 01 	call	0x208	; 0x208 <itoa>
 19a:	ce 01       	movw	r24, r28
 19c:	01 96       	adiw	r24, 0x01	; 1
 19e:	0e 94 8b 00 	call	0x116	; 0x116 <LCD_display_String>
 1a2:	60 96       	adiw	r28, 0x10	; 16
 1a4:	0f b6       	in	r0, 0x3f	; 63
 1a6:	f8 94       	cli
 1a8:	de bf       	out	0x3e, r29	; 62
 1aa:	0f be       	out	0x3f, r0	; 63
 1ac:	cd bf       	out	0x3d, r28	; 61
 1ae:	df 91       	pop	r29
 1b0:	cf 91       	pop	r28
 1b2:	08 95       	ret

000001b4 <main>:
 1b4:	cf 93       	push	r28
 1b6:	df 93       	push	r29
 1b8:	cd b7       	in	r28, 0x3d	; 61
 1ba:	de b7       	in	r29, 0x3e	; 62
 1bc:	64 97       	sbiw	r28, 0x14	; 20
 1be:	0f b6       	in	r0, 0x3f	; 63
 1c0:	f8 94       	cli
 1c2:	de bf       	out	0x3e, r29	; 62
 1c4:	0f be       	out	0x3f, r0	; 63
 1c6:	cd bf       	out	0x3d, r28	; 61
 1c8:	0e 94 7d 00 	call	0xfa	; 0xfa <LCD_init>
 1cc:	81 e6       	ldi	r24, 0x61	; 97
 1ce:	0e 94 5f 00 	call	0xbe	; 0xbe <LCD_display_Character>
 1d2:	8a e0       	ldi	r24, 0x0A	; 10
 1d4:	e0 e6       	ldi	r30, 0x60	; 96
 1d6:	f0 e0       	ldi	r31, 0x00	; 0
 1d8:	de 01       	movw	r26, r28
 1da:	11 96       	adiw	r26, 0x01	; 1
 1dc:	01 90       	ld	r0, Z+
 1de:	0d 92       	st	X+, r0
 1e0:	8a 95       	dec	r24
 1e2:	e1 f7       	brne	.-8      	; 0x1dc <main+0x28>
 1e4:	fe 01       	movw	r30, r28
 1e6:	3b 96       	adiw	r30, 0x0b	; 11
 1e8:	8a e0       	ldi	r24, 0x0A	; 10
 1ea:	df 01       	movw	r26, r30
 1ec:	1d 92       	st	X+, r1
 1ee:	8a 95       	dec	r24
 1f0:	e9 f7       	brne	.-6      	; 0x1ec <main+0x38>
 1f2:	ce 01       	movw	r24, r28
 1f4:	01 96       	adiw	r24, 0x01	; 1
 1f6:	0e 94 8b 00 	call	0x116	; 0x116 <LCD_display_String>
 1fa:	44 e7       	ldi	r20, 0x74	; 116
 1fc:	50 e0       	ldi	r21, 0x00	; 0
 1fe:	65 e0       	ldi	r22, 0x05	; 5
 200:	81 e0       	ldi	r24, 0x01	; 1
 202:	0e 94 b1 00 	call	0x162	; 0x162 <LCD_Display_String_Row_Col>
 206:	ff cf       	rjmp	.-2      	; 0x206 <main+0x52>

00000208 <itoa>:
 208:	fb 01       	movw	r30, r22
 20a:	9f 01       	movw	r18, r30
 20c:	e8 94       	clt
 20e:	42 30       	cpi	r20, 0x02	; 2
 210:	c4 f0       	brlt	.+48     	; 0x242 <itoa+0x3a>
 212:	45 32       	cpi	r20, 0x25	; 37
 214:	b4 f4       	brge	.+44     	; 0x242 <itoa+0x3a>
 216:	4a 30       	cpi	r20, 0x0A	; 10
 218:	29 f4       	brne	.+10     	; 0x224 <itoa+0x1c>
 21a:	97 fb       	bst	r25, 7
 21c:	1e f4       	brtc	.+6      	; 0x224 <itoa+0x1c>
 21e:	90 95       	com	r25
 220:	81 95       	neg	r24
 222:	9f 4f       	sbci	r25, 0xFF	; 255
 224:	64 2f       	mov	r22, r20
 226:	77 27       	eor	r23, r23
 228:	0e 94 35 01 	call	0x26a	; 0x26a <__udivmodhi4>
 22c:	80 5d       	subi	r24, 0xD0	; 208
 22e:	8a 33       	cpi	r24, 0x3A	; 58
 230:	0c f0       	brlt	.+2      	; 0x234 <itoa+0x2c>
 232:	89 5d       	subi	r24, 0xD9	; 217
 234:	81 93       	st	Z+, r24
 236:	cb 01       	movw	r24, r22
 238:	00 97       	sbiw	r24, 0x00	; 0
 23a:	a1 f7       	brne	.-24     	; 0x224 <itoa+0x1c>
 23c:	16 f4       	brtc	.+4      	; 0x242 <itoa+0x3a>
 23e:	5d e2       	ldi	r21, 0x2D	; 45
 240:	51 93       	st	Z+, r21
 242:	10 82       	st	Z, r1
 244:	c9 01       	movw	r24, r18
 246:	0c 94 25 01 	jmp	0x24a	; 0x24a <strrev>

0000024a <strrev>:
 24a:	dc 01       	movw	r26, r24
 24c:	fc 01       	movw	r30, r24
 24e:	67 2f       	mov	r22, r23
 250:	71 91       	ld	r23, Z+
 252:	77 23       	and	r23, r23
 254:	e1 f7       	brne	.-8      	; 0x24e <strrev+0x4>
 256:	32 97       	sbiw	r30, 0x02	; 2
 258:	04 c0       	rjmp	.+8      	; 0x262 <strrev+0x18>
 25a:	7c 91       	ld	r23, X
 25c:	6d 93       	st	X+, r22
 25e:	70 83       	st	Z, r23
 260:	62 91       	ld	r22, -Z
 262:	ae 17       	cp	r26, r30
 264:	bf 07       	cpc	r27, r31
 266:	c8 f3       	brcs	.-14     	; 0x25a <strrev+0x10>
 268:	08 95       	ret

0000026a <__udivmodhi4>:
 26a:	aa 1b       	sub	r26, r26
 26c:	bb 1b       	sub	r27, r27
 26e:	51 e1       	ldi	r21, 0x11	; 17
 270:	07 c0       	rjmp	.+14     	; 0x280 <__udivmodhi4_ep>

00000272 <__udivmodhi4_loop>:
 272:	aa 1f       	adc	r26, r26
 274:	bb 1f       	adc	r27, r27
 276:	a6 17       	cp	r26, r22
 278:	b7 07       	cpc	r27, r23
 27a:	10 f0       	brcs	.+4      	; 0x280 <__udivmodhi4_ep>
 27c:	a6 1b       	sub	r26, r22
 27e:	b7 0b       	sbc	r27, r23

00000280 <__udivmodhi4_ep>:
 280:	88 1f       	adc	r24, r24
 282:	99 1f       	adc	r25, r25
 284:	5a 95       	dec	r21
 286:	a9 f7       	brne	.-22     	; 0x272 <__udivmodhi4_loop>
 288:	80 95       	com	r24
 28a:	90 95       	com	r25
 28c:	bc 01       	movw	r22, r24
 28e:	cd 01       	movw	r24, r26
 290:	08 95       	ret

00000292 <_exit>:
 292:	f8 94       	cli

00000294 <__stop_program>:
 294:	ff cf       	rjmp	.-2      	; 0x294 <__stop_program>
